target datalayout = "e-m:e-p270:32:32-p271:32:32-p272:64:64-i64:64-i128:128-f80:128-n8:16:32:64-S128"
target triple = "x86_64-pc-linux-gnu"

%"struct.std::_Rb_tree_key_compare" = type { %"struct.std::less" }
%"struct.std::less" = type { i8 }
%"struct.std::_Rb_tree_header" = type { %"struct.std::_Rb_tree_node_base", i64 }
%"struct.std::_Rb_tree_node_base" = type { i32, ptr, ptr, ptr }
%"class.std::__cxx11::basic_string" = type { %"struct.std::__cxx11::basic_string<char>::_Alloc_hider", i64, %union.anon }
%"struct.std::__cxx11::basic_string<char>::_Alloc_hider" = type { ptr }
%union.anon = type { i64, [8 x i8] }
%"class.std::vector" = type { %"struct.std::_Vector_base" }
%"struct.std::_Vector_base" = type { %"struct.std::_Vector_base<std::__cxx11::basic_string<char>, std::allocator<std::__cxx11::basic_string<char>>>::_Vector_impl" }
%"struct.std::_Vector_base<std::__cxx11::basic_string<char>, std::allocator<std::__cxx11::basic_string<char>>>::_Vector_impl" = type { %"struct.std::_Vector_base<std::__cxx11::basic_string<char>, std::allocator<std::__cxx11::basic_string<char>>>::_Vector_impl_data" }
%"struct.std::_Vector_base<std::__cxx11::basic_string<char>, std::allocator<std::__cxx11::basic_string<char>>>::_Vector_impl_data" = type { ptr, ptr, ptr }
%"class.casadi::FmuFunction" = type { %"class.casadi::FunctionInternal", %"class.casadi::Fmu", %"class.std::vector.30", %"class.std::vector.35", %"class.std::vector.40", %"class.std::vector.40", %"class.std::vector.42", %"class.std::vector.15", %"class.std::vector.47", i8, i8, i8, i8, i8, i8, i8, i8, double, double, double, i8, i8, i8, i8, i8, %"class.std::__cxx11::basic_string", i32, i32, %"class.std::map", %"class.casadi::Sparsity", %"class.casadi::Sparsity", %"class.casadi::Sparsity", %"class.casadi::Sparsity", %"class.std::vector.47", %"struct.casadi::casadi_jac_prob", i64, i64, i64 }
%"class.casadi::FunctionInternal" = type { %"class.casadi::ProtoFunction", i8, i8, i64, i64, %"class.std::vector.11", %"class.std::vector.11", %"class.std::vector.15", %"class.std::vector.15", %"class.std::vector", %"class.std::vector", i8, i8, %"class.std::__cxx11::basic_string", %"class.std::__cxx11::basic_string", %"class.std::__cxx11::basic_string", i8, ptr, ptr, ptr, %"class.std::map", i8, %"class.std::map", %"class.std::map.23", [2 x %"class.std::vector.15"], %"class.casadi::Function", ptr, %"class.std::__cxx11::basic_string", %"class.casadi::Importer", %"class.std::map", double, i8, i8, i8, i8, i8, i8, i8, i8, double, double, i64, i8, %"class.std::map", double, %"class.std::__cxx11::basic_string", i8, i8, i64, i8, i8, i8, %"class.std::__cxx11::basic_string", %"class.std::__cxx11::basic_string", %"class.std::map", %"class.std::map", %"class.std::map", %"class.std::map", %"class.casadi::Function", i64, i64, i64, i64, i64, i64, i64, i64, i64 }
%"class.casadi::ProtoFunction" = type { %"class.casadi::SharedObjectInternal", %"class.std::__cxx11::basic_string", i8, i8, i8, i8, i8, %"class.std::vector.3", %"class.std::stack" }
%"class.casadi::SharedObjectInternal" = type { ptr, i64, ptr }
%"class.std::vector.3" = type { %"struct.std::_Vector_base.4" }
%"struct.std::_Vector_base.4" = type { %"struct.std::_Vector_base<void *, std::allocator<void *>>::_Vector_impl" }
%"struct.std::_Vector_base<void *, std::allocator<void *>>::_Vector_impl" = type { %"struct.std::_Vector_base<void *, std::allocator<void *>>::_Vector_impl_data" }
%"struct.std::_Vector_base<void *, std::allocator<void *>>::_Vector_impl_data" = type { ptr, ptr, ptr }
%"class.std::stack" = type { %"class.std::deque" }
%"class.std::deque" = type { %"class.std::_Deque_base" }
%"class.std::_Deque_base" = type { %"struct.std::_Deque_base<int, std::allocator<int>>::_Deque_impl" }
%"struct.std::_Deque_base<int, std::allocator<int>>::_Deque_impl" = type { %"struct.std::_Deque_base<int, std::allocator<int>>::_Deque_impl_data" }
%"struct.std::_Deque_base<int, std::allocator<int>>::_Deque_impl_data" = type { ptr, i64, %"struct.std::_Deque_iterator", %"struct.std::_Deque_iterator" }
%"struct.std::_Deque_iterator" = type { ptr, ptr, ptr, ptr }
%"class.std::vector.11" = type { %"struct.std::_Bvector_base" }
%"struct.std::_Bvector_base" = type { %"struct.std::_Bvector_base<std::allocator<bool>>::_Bvector_impl" }
%"struct.std::_Bvector_base<std::allocator<bool>>::_Bvector_impl" = type { %"struct.std::_Bvector_base<std::allocator<bool>>::_Bvector_impl_data" }
%"struct.std::_Bvector_base<std::allocator<bool>>::_Bvector_impl_data" = type { %"struct.std::_Bit_iterator", %"struct.std::_Bit_iterator", ptr }
%"struct.std::_Bit_iterator" = type { %"struct.std::_Bit_iterator_base.base", [4 x i8] }
%"struct.std::_Bit_iterator_base.base" = type <{ ptr, i32 }>
%"class.std::map.23" = type { %"class.std::_Rb_tree.24" }
%"class.std::_Rb_tree.24" = type { %"struct.std::_Rb_tree<std::__cxx11::basic_string<char>, std::pair<const std::__cxx11::basic_string<char>, casadi::WeakRef>, std::_Select1st<std::pair<const std::__cxx11::basic_string<char>, casadi::WeakRef>>, std::less<std::__cxx11::basic_string<char>>>::_Rb_tree_impl" }
%"struct.std::_Rb_tree<std::__cxx11::basic_string<char>, std::pair<const std::__cxx11::basic_string<char>, casadi::WeakRef>, std::_Select1st<std::pair<const std::__cxx11::basic_string<char>, casadi::WeakRef>>, std::less<std::__cxx11::basic_string<char>>>::_Rb_tree_impl" = type { %"struct.std::_Rb_tree_key_compare", %"struct.std::_Rb_tree_header" }
%"class.casadi::Importer" = type { %"class.casadi::SharedObject" }
%"class.casadi::SharedObject" = type { ptr }
%"class.casadi::Function" = type { %"class.casadi::SharedObject" }
%"class.casadi::Fmu" = type { %"class.casadi::SharedObject" }
%"class.std::vector.30" = type { %"struct.std::_Vector_base.31" }
%"struct.std::_Vector_base.31" = type { %"struct.std::_Vector_base<casadi::InputStruct, std::allocator<casadi::InputStruct>>::_Vector_impl" }
%"struct.std::_Vector_base<casadi::InputStruct, std::allocator<casadi::InputStruct>>::_Vector_impl" = type { %"struct.std::_Vector_base<casadi::InputStruct, std::allocator<casadi::InputStruct>>::_Vector_impl_data" }
%"struct.std::_Vector_base<casadi::InputStruct, std::allocator<casadi::InputStruct>>::_Vector_impl_data" = type { ptr, ptr, ptr }
%"class.std::vector.35" = type { %"struct.std::_Vector_base.36" }
%"struct.std::_Vector_base.36" = type { %"struct.std::_Vector_base<casadi::OutputStruct, std::allocator<casadi::OutputStruct>>::_Vector_impl" }
%"struct.std::_Vector_base<casadi::OutputStruct, std::allocator<casadi::OutputStruct>>::_Vector_impl" = type { %"struct.std::_Vector_base<casadi::OutputStruct, std::allocator<casadi::OutputStruct>>::_Vector_impl_data" }
%"struct.std::_Vector_base<casadi::OutputStruct, std::allocator<casadi::OutputStruct>>::_Vector_impl_data" = type { ptr, ptr, ptr }
%"class.std::vector.40" = type { %"struct.std::_Vector_base.41" }
%"struct.std::_Vector_base.41" = type { %"struct.std::_Vector_base<unsigned long, std::allocator<unsigned long>>::_Vector_impl" }
%"struct.std::_Vector_base<unsigned long, std::allocator<unsigned long>>::_Vector_impl" = type { %"struct.std::_Vector_base<unsigned long, std::allocator<unsigned long>>::_Vector_impl_data" }
%"struct.std::_Vector_base<unsigned long, std::allocator<unsigned long>>::_Vector_impl_data" = type { ptr, ptr, ptr }
%"class.std::vector.42" = type { %"struct.std::_Vector_base.43" }
%"struct.std::_Vector_base.43" = type { %"struct.std::_Vector_base<double, std::allocator<double>>::_Vector_impl" }
%"struct.std::_Vector_base<double, std::allocator<double>>::_Vector_impl" = type { %"struct.std::_Vector_base<double, std::allocator<double>>::_Vector_impl_data" }
%"struct.std::_Vector_base<double, std::allocator<double>>::_Vector_impl_data" = type { ptr, ptr, ptr }
%"class.std::vector.15" = type { %"struct.std::_Vector_base.16" }
%"struct.std::_Vector_base.16" = type { %"struct.std::_Vector_base<casadi::Sparsity, std::allocator<casadi::Sparsity>>::_Vector_impl" }
%"struct.std::_Vector_base<casadi::Sparsity, std::allocator<casadi::Sparsity>>::_Vector_impl" = type { %"struct.std::_Vector_base<casadi::Sparsity, std::allocator<casadi::Sparsity>>::_Vector_impl_data" }
%"struct.std::_Vector_base<casadi::Sparsity, std::allocator<casadi::Sparsity>>::_Vector_impl_data" = type { ptr, ptr, ptr }
%"class.std::map" = type { %"class.std::_Rb_tree" }
%"class.std::_Rb_tree" = type { %"struct.std::_Rb_tree<std::__cxx11::basic_string<char>, std::pair<const std::__cxx11::basic_string<char>, casadi::GenericType>, std::_Select1st<std::pair<const std::__cxx11::basic_string<char>, casadi::GenericType>>, std::less<std::__cxx11::basic_string<char>>>::_Rb_tree_impl" }
%"struct.std::_Rb_tree<std::__cxx11::basic_string<char>, std::pair<const std::__cxx11::basic_string<char>, casadi::GenericType>, std::_Select1st<std::pair<const std::__cxx11::basic_string<char>, casadi::GenericType>>, std::less<std::__cxx11::basic_string<char>>>::_Rb_tree_impl" = type { %"struct.std::_Rb_tree_key_compare", %"struct.std::_Rb_tree_header" }
%"class.casadi::Sparsity" = type { %"class.casadi::SharedObject" }
%"class.std::vector.47" = type { %"struct.std::_Vector_base.48" }
%"struct.std::_Vector_base.48" = type { %"struct.std::_Vector_base<long long, std::allocator<long long>>::_Vector_impl" }
%"struct.std::_Vector_base<long long, std::allocator<long long>>::_Vector_impl" = type { %"struct.std::_Vector_base<long long, std::allocator<long long>>::_Vector_impl_data" }
%"struct.std::_Vector_base<long long, std::allocator<long long>>::_Vector_impl_data" = type { ptr, ptr, ptr }
%"struct.casadi::casadi_jac_prob" = type { i64, i64, i64, ptr, ptr, ptr, ptr, ptr }

; Function Attrs: mustprogress nounwind uwtable
define linkonce_odr hidden void @_ZN6casadi11casadi_copyIxEEvPKT_xPS1_(ptr noundef %0, i64 noundef %1, ptr noundef %2) #5 comdat {
  %4 = alloca ptr, align 8
  %5 = alloca i64, align 8
  %6 = alloca ptr, align 8
  %7 = alloca i64, align 8
  store ptr %0, ptr %4, align 8
  store i64 %1, ptr %5, align 8
  store ptr %2, ptr %6, align 8
  %8 = load ptr, ptr %6, align 8
  %9 = icmp ne ptr %8, null
  br i1 %9, label %10, label %41

10:                                               ; preds = %3
  %11 = load ptr, ptr %4, align 8
  %12 = icmp ne ptr %11, null
  br i1 %12, label %13, label %28

13:                                               ; preds = %10
  store i64 0, ptr %7, align 8
  br label %14

14:                                               ; preds = %24, %13
  %15 = load i64, ptr %7, align 8
  %16 = load i64, ptr %5, align 8
  %17 = icmp slt i64 %15, %16
  br i1 %17, label %18, label %27

18:                                               ; preds = %14
  %19 = load ptr, ptr %4, align 8
  %20 = getelementptr inbounds i64, ptr %19, i32 1
  store ptr %20, ptr %4, align 8
  %21 = load i64, ptr %19, align 8
  %22 = load ptr, ptr %6, align 8
  %23 = getelementptr inbounds i64, ptr %22, i32 1
  store ptr %23, ptr %6, align 8
  store i64 %21, ptr %22, align 8
  br label %24

24:                                               ; preds = %18
  %25 = load i64, ptr %7, align 8
  %26 = add nsw i64 %25, 1
  store i64 %26, ptr %7, align 8
  br label %14, !llvm.loop !56

27:                                               ; preds = %14
  br label %40

28:                                               ; preds = %10
  store i64 0, ptr %7, align 8
  br label %29

29:                                               ; preds = %36, %28
  %30 = load i64, ptr %7, align 8
  %31 = load i64, ptr %5, align 8
  %32 = icmp slt i64 %30, %31
  br i1 %32, label %33, label %39

33:                                               ; preds = %29
  %34 = load ptr, ptr %6, align 8
  %35 = getelementptr inbounds i64, ptr %34, i32 1
  store ptr %35, ptr %6, align 8
  store i64 0, ptr %34, align 8
  br label %36

36:                                               ; preds = %33
  %37 = load i64, ptr %7, align 8
  %38 = add nsw i64 %37, 1
  store i64 %38, ptr %7, align 8
  br label %29, !llvm.loop !57

39:                                               ; preds = %29
  br label %40

40:                                               ; preds = %39, %27
  br label %41

41:                                               ; preds = %40, %3
  ret void
}

; Function Attrs: mustprogress uwtable
define void @_ZNK6casadi11FmuFunction14make_symmetricEPdPx(ptr noundef nonnull align 8 dereferenceable(1752) %0, ptr noundef %1, ptr noundef %2) #4 align 2 {
  %4 = alloca ptr, align 8
  %5 = alloca ptr, align 8
  %6 = alloca ptr, align 8
  %7 = alloca i64, align 8
  %8 = alloca ptr, align 8
  %9 = alloca ptr, align 8
  %10 = alloca i64, align 8
  %11 = alloca i64, align 8
  %12 = alloca i64, align 8
  %13 = alloca i64, align 8
  store ptr %0, ptr %4, align 8
  store ptr %1, ptr %5, align 8
  store ptr %2, ptr %6, align 8
  %14 = load ptr, ptr %4, align 8
  %15 = getelementptr inbounds %"class.casadi::FmuFunction", ptr %14, i32 0, i32 30
  %16 = call noundef i64 @_ZNK6casadi8Sparsity5size1Ev(ptr noundef nonnull align 8 dereferenceable(8) %15)
  store i64 %16, ptr %7, align 8
  %17 = getelementptr inbounds %"class.casadi::FmuFunction", ptr %14, i32 0, i32 30
  %18 = call noundef ptr @_ZNK6casadi8Sparsity6colindEv(ptr noundef nonnull align 8 dereferenceable(8) %17)
  store ptr %18, ptr %8, align 8
  %19 = getelementptr inbounds %"class.casadi::FmuFunction", ptr %14, i32 0, i32 30
  %20 = call noundef ptr @_ZNK6casadi8Sparsity3rowEv(ptr noundef nonnull align 8 dereferenceable(8) %19)
  store ptr %20, ptr %9, align 8
  %21 = load ptr, ptr %8, align 8
  %22 = load i64, ptr %7, align 8
  %23 = load ptr, ptr %6, align 8
  call void @_ZN6casadi11casadi_copyIxEEvPKT_xPS1_(ptr noundef %21, i64 noundef %22, ptr noundef %23)
  store i64 0, ptr %10, align 8
  br label %24

24:                                               ; preds = %76, %3
  %25 = load i64, ptr %10, align 8
  %26 = load i64, ptr %7, align 8
  %27 = icmp slt i64 %25, %26
  br i1 %27, label %28, label %79

28:                                               ; preds = %24
  %29 = load ptr, ptr %8, align 8
  %30 = load i64, ptr %10, align 8
  %31 = getelementptr inbounds i64, ptr %29, i64 %30
  %32 = load i64, ptr %31, align 8
  store i64 %32, ptr %11, align 8
  br label %33

33:                                               ; preds = %72, %28
  %34 = load i64, ptr %11, align 8
  %35 = load ptr, ptr %8, align 8
  %36 = load i64, ptr %10, align 8
  %37 = add nsw i64 %36, 1
  %38 = getelementptr inbounds i64, ptr %35, i64 %37
  %39 = load i64, ptr %38, align 8
  %40 = icmp slt i64 %34, %39
  br i1 %40, label %41, label %75

41:                                               ; preds = %33
  %42 = load ptr, ptr %9, align 8
  %43 = load i64, ptr %11, align 8
  %44 = getelementptr inbounds i64, ptr %42, i64 %43
  %45 = load i64, ptr %44, align 8
  store i64 %45, ptr %12, align 8
  %46 = load ptr, ptr %6, align 8
  %47 = load i64, ptr %12, align 8
  %48 = getelementptr inbounds i64, ptr %46, i64 %47
  %49 = load i64, ptr %48, align 8
  %50 = add nsw i64 %49, 1
  store i64 %50, ptr %48, align 8
  store i64 %49, ptr %13, align 8
  %51 = load i64, ptr %12, align 8
  %52 = load i64, ptr %10, align 8
  %53 = icmp slt i64 %51, %52
  br i1 %53, label %54, label %71

54:                                               ; preds = %41
  %55 = load ptr, ptr %5, align 8
  %56 = load i64, ptr %11, align 8
  %57 = getelementptr inbounds double, ptr %55, i64 %56
  %58 = load double, ptr %57, align 8
  %59 = load ptr, ptr %5, align 8
  %60 = load i64, ptr %13, align 8
  %61 = getelementptr inbounds double, ptr %59, i64 %60
  %62 = load double, ptr %61, align 8
  %63 = fadd double %58, %62
  %64 = fmul double 5.000000e-01, %63
  %65 = load ptr, ptr %5, align 8
  %66 = load i64, ptr %13, align 8
  %67 = getelementptr inbounds double, ptr %65, i64 %66
  store double %64, ptr %67, align 8
  %68 = load ptr, ptr %5, align 8
  %69 = load i64, ptr %11, align 8
  %70 = getelementptr inbounds double, ptr %68, i64 %69
  store double %64, ptr %70, align 8
  br label %71

71:                                               ; preds = %54, %41
  br label %72

72:                                               ; preds = %71
  %73 = load i64, ptr %11, align 8
  %74 = add nsw i64 %73, 1
  store i64 %74, ptr %11, align 8
  br label %33, !llvm.loop !27

75:                                               ; preds = %33
  br label %76

76:                                               ; preds = %75
  %77 = load i64, ptr %10, align 8
  %78 = add nsw i64 %77, 1
  store i64 %78, ptr %10, align 8
  br label %24, !llvm.loop !28

79:                                               ; preds = %24
  ret void
}