; Function Attrs: mustprogress uwtable
define void @_ZNK6casadi11FmuFunction14make_symmetricEPdPx(ptr noundef nonnull align 8 dereferenceable(1752) %0, ptr nocapture noundef %1, ptr noundef %2) local_unnamed_addr #3 align 2 {
  %4 = getelementptr inbounds i8, ptr %0, i64 1616
  %5 = tail call noundef i64 @_ZNK6casadi8Sparsity5size1Ev(ptr noundef nonnull align 8 dereferenceable(8) %4)
  %6 = tail call noundef ptr @_ZNK6casadi8Sparsity6colindEv(ptr noundef nonnull align 8 dereferenceable(8) %4)
  %7 = tail call noundef ptr @_ZNK6casadi8Sparsity3rowEv(ptr noundef nonnull align 8 dereferenceable(8) %4)
  %.not.i = icmp eq ptr %2, null
  br i1 %.not.i, label %_ZN6casadi11casadi_copyIxEEvPKT_xPS1_.exit, label %8

8:                                                ; preds = %3
  %.not15.i = icmp eq ptr %6, null
  %9 = icmp sgt i64 %5, 0
  br i1 %.not15.i, label %.preheader.i, label %.preheader16.i

.preheader16.i:                                   ; preds = %8
  br i1 %9, label %.lr.ph.i, label %._crit_edge

.preheader.i:                                     ; preds = %8
  br i1 %9, label %_ZN6casadi11casadi_copyIxEEvPKT_xPS1_.exit.thread30, label %._crit_edge

_ZN6casadi11casadi_copyIxEEvPKT_xPS1_.exit.thread30: ; preds = %.preheader.i
  %10 = shl nuw i64 %5, 3
  tail call void @llvm.memset.p0.i64(ptr nonnull align 8 %2, i8 0, i64 %10, i1 false)
  br label %.lr.ph29.preheader

.lr.ph.i:                                         ; preds = %.preheader16.i, %.lr.ph.i
  %.020.i = phi i64 [ %14, %.lr.ph.i ], [ 0, %.preheader16.i ]
  %.01019.i = phi ptr [ %13, %.lr.ph.i ], [ %2, %.preheader16.i ]
  %.01218.i = phi ptr [ %11, %.lr.ph.i ], [ %6, %.preheader16.i ]
  %11 = getelementptr inbounds i8, ptr %.01218.i, i64 8
  %12 = load i64, ptr %.01218.i, align 8
  %13 = getelementptr inbounds i8, ptr %.01019.i, i64 8
  store i64 %12, ptr %.01019.i, align 8
  %14 = add nuw nsw i64 %.020.i, 1
  %exitcond.not.i = icmp eq i64 %14, %5
  br i1 %exitcond.not.i, label %_ZN6casadi11casadi_copyIxEEvPKT_xPS1_.exit, label %.lr.ph.i, !llvm.loop !159

_ZN6casadi11casadi_copyIxEEvPKT_xPS1_.exit:       ; preds = %.lr.ph.i, %3
  %15 = icmp sgt i64 %5, 0
  br i1 %15, label %.lr.ph29.preheader, label %._crit_edge

.lr.ph29.preheader:                               ; preds = %_ZN6casadi11casadi_copyIxEEvPKT_xPS1_.exit.thread30, %_ZN6casadi11casadi_copyIxEEvPKT_xPS1_.exit
  %.pre = load i64, ptr %6, align 8
  br label %.lr.ph29

.loopexit:                                        ; preds = %35, %.lr.ph29
  %16 = phi i64 [ %20, %.lr.ph29 ], [ %37, %35 ]
  %exitcond.not = icmp eq i64 %18, %5
  br i1 %exitcond.not, label %._crit_edge, label %.lr.ph29, !llvm.loop !164

.lr.ph29:                                         ; preds = %.lr.ph29.preheader, %.loopexit
  %17 = phi i64 [ %16, %.loopexit ], [ %.pre, %.lr.ph29.preheader ]
  %.028 = phi i64 [ %18, %.loopexit ], [ 0, %.lr.ph29.preheader ]
  %18 = add nuw nsw i64 %.028, 1
  %19 = getelementptr inbounds i64, ptr %6, i64 %18
  %20 = load i64, ptr %19, align 8
  %21 = icmp slt i64 %17, %20
  br i1 %21, label %.lr.ph, label %.loopexit

.lr.ph:                                           ; preds = %.lr.ph29, %35
  %.02627 = phi i64 [ %36, %35 ], [ %17, %.lr.ph29 ]
  %22 = getelementptr inbounds i64, ptr %7, i64 %.02627
  %23 = load i64, ptr %22, align 8
  %24 = getelementptr inbounds i64, ptr %2, i64 %23
  %25 = load i64, ptr %24, align 8
  %26 = add nsw i64 %25, 1
  store i64 %26, ptr %24, align 8
  %27 = icmp slt i64 %23, %.028
  br i1 %27, label %28, label %35

28:                                               ; preds = %.lr.ph
  %29 = getelementptr inbounds double, ptr %1, i64 %.02627
  %30 = load double, ptr %29, align 8
  %31 = getelementptr inbounds double, ptr %1, i64 %25
  %32 = load double, ptr %31, align 8
  %33 = fadd double %30, %32
  %34 = fmul double %33, 5.000000e-01
  store double %34, ptr %31, align 8
  store double %34, ptr %29, align 8
  br label %35

35:                                               ; preds = %.lr.ph, %28
  %36 = add nsw i64 %.02627, 1
  %37 = load i64, ptr %19, align 8
  %38 = icmp slt i64 %36, %37
  br i1 %38, label %.lr.ph, label %.loopexit, !llvm.loop !165

._crit_edge:                                      ; preds = %.loopexit, %.preheader.i, %.preheader16.i, %_ZN6casadi11casadi_copyIxEEvPKT_xPS1_.exit
  ret void
}